; ModuleID = '41/122.cpp'
source_filename = "41/122.cpp"
target datalayout = "e-m:e-p270:32:32-p271:32:32-p272:64:64-i64:64-f80:128-n8:16:32:64-S128"
target triple = "x86_64-pc-linux-gnu"

%"class.std::ios_base::Init" = type { i8 }
%"class.std::basic_ostream" = type { i32 (...)**, %"class.std::basic_ios" }
%"class.std::basic_ios" = type { %"class.std::ios_base", %"class.std::basic_ostream"*, i8, i8, %"class.std::basic_streambuf"*, %"class.std::ctype"*, %"class.std::num_put"*, %"class.std::num_get"* }
%"class.std::ios_base" = type { i32 (...)**, i64, i64, i32, i32, i32, %"struct.std::ios_base::_Callback_list"*, %"struct.std::ios_base::_Words", [8 x %"struct.std::ios_base::_Words"], i32, %"struct.std::ios_base::_Words"*, %"class.std::locale" }
%"struct.std::ios_base::_Callback_list" = type { %"struct.std::ios_base::_Callback_list"*, void (i32, %"class.std::ios_base"*, i32)*, i32, i32 }
%"struct.std::ios_base::_Words" = type { i8*, i64 }
%"class.std::locale" = type { %"class.std::locale::_Impl"* }
%"class.std::locale::_Impl" = type { i32, %"class.std::locale::facet"**, i64, %"class.std::locale::facet"**, i8** }
%"class.std::locale::facet" = type <{ i32 (...)**, i32, [4 x i8] }>
%"class.std::basic_streambuf" = type { i32 (...)**, i8*, i8*, i8*, i8*, i8*, i8*, %"class.std::locale" }
%"class.std::ctype" = type <{ %"class.std::locale::facet.base", [4 x i8], %struct.__locale_struct*, i8, [7 x i8], i32*, i32*, i16*, i8, [256 x i8], [256 x i8], i8, [6 x i8] }>
%"class.std::locale::facet.base" = type <{ i32 (...)**, i32 }>
%struct.__locale_struct = type { [13 x %struct.__locale_data*], i16*, i32*, i32*, [13 x i8*] }
%struct.__locale_data = type opaque
%"class.std::num_put" = type { %"class.std::locale::facet.base", [4 x i8] }
%"class.std::num_get" = type { %"class.std::locale::facet.base", [4 x i8] }

@_ZStL8__ioinit = internal global %"class.std::ios_base::Init" zeroinitializer, align 1
@__dso_handle = external hidden global i8
@_ZSt4cout = external dso_local global %"class.std::basic_ostream", align 8
@.str = private unnamed_addr constant [2 x i8] c" \00", align 1
@llvm.global_ctors = appending global [1 x { i32, void ()*, i8* }] [{ i32, void ()*, i8* } { i32 65535, void ()* @_GLOBAL__sub_I_122.cpp, i8* null }]

; Function Attrs: noinline uwtable
define internal void @__cxx_global_var_init() #0 section ".text.startup" {
  call void @_ZNSt8ios_base4InitC1Ev(%"class.std::ios_base::Init"* @_ZStL8__ioinit)
  %1 = call i32 @__cxa_atexit(void (i8*)* bitcast (void (%"class.std::ios_base::Init"*)* @_ZNSt8ios_base4InitD1Ev to void (i8*)*), i8* getelementptr inbounds (%"class.std::ios_base::Init", %"class.std::ios_base::Init"* @_ZStL8__ioinit, i32 0, i32 0), i8* @__dso_handle) #3
  ret void
}

declare dso_local void @_ZNSt8ios_base4InitC1Ev(%"class.std::ios_base::Init"*) unnamed_addr #1

; Function Attrs: nounwind
declare dso_local void @_ZNSt8ios_base4InitD1Ev(%"class.std::ios_base::Init"*) unnamed_addr #2

; Function Attrs: nounwind
declare dso_local i32 @__cxa_atexit(void (i8*)*, i8*, i8*) #3

; Function Attrs: noinline norecurse uwtable
define dso_local i32 @main() #4 {
  %1 = alloca i32, align 4
  %2 = alloca i32, align 4
  %3 = alloca i32, align 4
  %4 = alloca i32, align 4
  %5 = alloca i32, align 4
  %6 = alloca i32, align 4
  %7 = alloca i32, align 4
  %8 = alloca [6 x i32], align 16
  %9 = alloca i32, align 4
  store i32 0, i32* %1, align 4
  store i32 0, i32* %7, align 4
  store i32 1, i32* %2, align 4
  br label %10

10:                                               ; preds = %161, %0
  %11 = load i32, i32* %2, align 4
  %12 = icmp sle i32 %11, 5
  br i1 %12, label %13, label %164

13:                                               ; preds = %10
  store i32 1, i32* %3, align 4
  br label %14

14:                                               ; preds = %157, %13
  %15 = load i32, i32* %3, align 4
  %16 = icmp sle i32 %15, 5
  br i1 %16, label %17, label %160

17:                                               ; preds = %14
  %18 = load i32, i32* %3, align 4
  %19 = load i32, i32* %2, align 4
  %20 = icmp ne i32 %18, %19
  br i1 %20, label %21, label %156

21:                                               ; preds = %17
  store i32 1, i32* %4, align 4
  br label %22

22:                                               ; preds = %152, %21
  %23 = load i32, i32* %4, align 4
  %24 = icmp sle i32 %23, 5
  br i1 %24, label %25, label %155

25:                                               ; preds = %22
  %26 = load i32, i32* %4, align 4
  %27 = load i32, i32* %2, align 4
  %28 = icmp ne i32 %26, %27
  br i1 %28, label %29, label %151

29:                                               ; preds = %25
  %30 = load i32, i32* %4, align 4
  %31 = load i32, i32* %3, align 4
  %32 = icmp ne i32 %30, %31
  br i1 %32, label %33, label %151

33:                                               ; preds = %29
  store i32 1, i32* %5, align 4
  br label %34

34:                                               ; preds = %147, %33
  %35 = load i32, i32* %5, align 4
  %36 = icmp sle i32 %35, 5
  br i1 %36, label %37, label %150

37:                                               ; preds = %34
  %38 = load i32, i32* %5, align 4
  %39 = load i32, i32* %2, align 4
  %40 = icmp ne i32 %38, %39
  br i1 %40, label %41, label %146

41:                                               ; preds = %37
  %42 = load i32, i32* %5, align 4
  %43 = load i32, i32* %3, align 4
  %44 = icmp ne i32 %42, %43
  br i1 %44, label %45, label %146

45:                                               ; preds = %41
  %46 = load i32, i32* %5, align 4
  %47 = load i32, i32* %4, align 4
  %48 = icmp ne i32 %46, %47
  br i1 %48, label %49, label %146

49:                                               ; preds = %45
  store i32 1, i32* %6, align 4
  br label %50

50:                                               ; preds = %142, %49
  %51 = load i32, i32* %6, align 4
  %52 = icmp sle i32 %51, 5
  br i1 %52, label %53, label %145

53:                                               ; preds = %50
  %54 = load i32, i32* %6, align 4
  %55 = load i32, i32* %2, align 4
  %56 = icmp ne i32 %54, %55
  br i1 %56, label %57, label %141

57:                                               ; preds = %53
  %58 = load i32, i32* %6, align 4
  %59 = load i32, i32* %3, align 4
  %60 = icmp ne i32 %58, %59
  br i1 %60, label %61, label %141

61:                                               ; preds = %57
  %62 = load i32, i32* %6, align 4
  %63 = load i32, i32* %4, align 4
  %64 = icmp ne i32 %62, %63
  br i1 %64, label %65, label %141

65:                                               ; preds = %61
  %66 = load i32, i32* %6, align 4
  %67 = load i32, i32* %5, align 4
  %68 = icmp ne i32 %66, %67
  br i1 %68, label %69, label %141

69:                                               ; preds = %65
  %70 = load i32, i32* %6, align 4
  %71 = icmp eq i32 %70, 1
  %72 = zext i1 %71 to i32
  %73 = load i32, i32* %2, align 4
  %74 = sext i32 %73 to i64
  %75 = getelementptr inbounds [6 x i32], [6 x i32]* %8, i64 0, i64 %74
  store i32 %72, i32* %75, align 4
  %76 = load i32, i32* %3, align 4
  %77 = icmp eq i32 %76, 2
  %78 = zext i1 %77 to i32
  %79 = load i32, i32* %3, align 4
  %80 = sext i32 %79 to i64
  %81 = getelementptr inbounds [6 x i32], [6 x i32]* %8, i64 0, i64 %80
  store i32 %78, i32* %81, align 4
  %82 = load i32, i32* %2, align 4
  %83 = icmp eq i32 %82, 5
  %84 = zext i1 %83 to i32
  %85 = load i32, i32* %4, align 4
  %86 = sext i32 %85 to i64
  %87 = getelementptr inbounds [6 x i32], [6 x i32]* %8, i64 0, i64 %86
  store i32 %84, i32* %87, align 4
  %88 = load i32, i32* %4, align 4
  %89 = icmp ne i32 %88, 1
  %90 = zext i1 %89 to i32
  %91 = load i32, i32* %5, align 4
  %92 = sext i32 %91 to i64
  %93 = getelementptr inbounds [6 x i32], [6 x i32]* %8, i64 0, i64 %92
  store i32 %90, i32* %93, align 4
  %94 = load i32, i32* %5, align 4
  %95 = icmp eq i32 %94, 1
  %96 = zext i1 %95 to i32
  %97 = load i32, i32* %6, align 4
  %98 = sext i32 %97 to i64
  %99 = getelementptr inbounds [6 x i32], [6 x i32]* %8, i64 0, i64 %98
  store i32 %96, i32* %99, align 4
  %100 = getelementptr inbounds [6 x i32], [6 x i32]* %8, i64 0, i64 1
  %101 = load i32, i32* %100, align 4
  %102 = icmp ne i32 %101, 0
  br i1 %102, label %103, label %140

103:                                              ; preds = %69
  %104 = getelementptr inbounds [6 x i32], [6 x i32]* %8, i64 0, i64 2
  %105 = load i32, i32* %104, align 8
  %106 = icmp ne i32 %105, 0
  br i1 %106, label %107, label %140

107:                                              ; preds = %103
  %108 = getelementptr inbounds [6 x i32], [6 x i32]* %8, i64 0, i64 3
  %109 = load i32, i32* %108, align 4
  %110 = icmp ne i32 %109, 0
  br i1 %110, label %140, label %111

111:                                              ; preds = %107
  %112 = getelementptr inbounds [6 x i32], [6 x i32]* %8, i64 0, i64 4
  %113 = load i32, i32* %112, align 16
  %114 = icmp ne i32 %113, 0
  br i1 %114, label %140, label %115

115:                                              ; preds = %111
  %116 = getelementptr inbounds [6 x i32], [6 x i32]* %8, i64 0, i64 5
  %117 = load i32, i32* %116, align 4
  %118 = icmp ne i32 %117, 0
  br i1 %118, label %140, label %119

119:                                              ; preds = %115
  %120 = load i32, i32* %6, align 4
  %121 = icmp ne i32 %120, 2
  br i1 %121, label %122, label %140

122:                                              ; preds = %119
  %123 = load i32, i32* %6, align 4
  %124 = icmp ne i32 %123, 3
  br i1 %124, label %125, label %140

125:                                              ; preds = %122
  %126 = load i32, i32* %2, align 4
  %127 = call dereferenceable(272) %"class.std::basic_ostream"* @_ZNSolsEi(%"class.std::basic_ostream"* @_ZSt4cout, i32 %126)
  %128 = call dereferenceable(272) %"class.std::basic_ostream"* @_ZStlsISt11char_traitsIcEERSt13basic_ostreamIcT_ES5_PKc(%"class.std::basic_ostream"* dereferenceable(272) %127, i8* getelementptr inbounds ([2 x i8], [2 x i8]* @.str, i64 0, i64 0))
  %129 = load i32, i32* %3, align 4
  %130 = call dereferenceable(272) %"class.std::basic_ostream"* @_ZNSolsEi(%"class.std::basic_ostream"* %128, i32 %129)
  %131 = call dereferenceable(272) %"class.std::basic_ostream"* @_ZStlsISt11char_traitsIcEERSt13basic_ostreamIcT_ES5_PKc(%"class.std::basic_ostream"* dereferenceable(272) %130, i8* getelementptr inbounds ([2 x i8], [2 x i8]* @.str, i64 0, i64 0))
  %132 = load i32, i32* %4, align 4
  %133 = call dereferenceable(272) %"class.std::basic_ostream"* @_ZNSolsEi(%"class.std::basic_ostream"* %131, i32 %132)
  %134 = call dereferenceable(272) %"class.std::basic_ostream"* @_ZStlsISt11char_traitsIcEERSt13basic_ostreamIcT_ES5_PKc(%"class.std::basic_ostream"* dereferenceable(272) %133, i8* getelementptr inbounds ([2 x i8], [2 x i8]* @.str, i64 0, i64 0))
  %135 = load i32, i32* %5, align 4
  %136 = call dereferenceable(272) %"class.std::basic_ostream"* @_ZNSolsEi(%"class.std::basic_ostream"* %134, i32 %135)
  %137 = call dereferenceable(272) %"class.std::basic_ostream"* @_ZStlsISt11char_traitsIcEERSt13basic_ostreamIcT_ES5_PKc(%"class.std::basic_ostream"* dereferenceable(272) %136, i8* getelementptr inbounds ([2 x i8], [2 x i8]* @.str, i64 0, i64 0))
  %138 = load i32, i32* %6, align 4
  %139 = call dereferenceable(272) %"class.std::basic_ostream"* @_ZNSolsEi(%"class.std::basic_ostream"* %137, i32 %138)
  br label %140

140:                                              ; preds = %125, %122, %119, %115, %111, %107, %103, %69
  br label %141

141:                                              ; preds = %140, %65, %61, %57, %53
  br label %142

142:                                              ; preds = %141
  %143 = load i32, i32* %6, align 4
  %144 = add nsw i32 %143, 1
  store i32 %144, i32* %6, align 4
  br label %50

145:                                              ; preds = %50
  br label %146

146:                                              ; preds = %145, %45, %41, %37
  br label %147

147:                                              ; preds = %146
  %148 = load i32, i32* %5, align 4
  %149 = add nsw i32 %148, 1
  store i32 %149, i32* %5, align 4
  br label %34

150:                                              ; preds = %34
  br label %151

151:                                              ; preds = %150, %29, %25
  br label %152

152:                                              ; preds = %151
  %153 = load i32, i32* %4, align 4
  %154 = add nsw i32 %153, 1
  store i32 %154, i32* %4, align 4
  br label %22

155:                                              ; preds = %22
  br label %156

156:                                              ; preds = %155, %17
  br label %157

157:                                              ; preds = %156
  %158 = load i32, i32* %3, align 4
  %159 = add nsw i32 %158, 1
  store i32 %159, i32* %3, align 4
  br label %14

160:                                              ; preds = %14
  br label %161

161:                                              ; preds = %160
  %162 = load i32, i32* %2, align 4
  %163 = add nsw i32 %162, 1
  store i32 %163, i32* %2, align 4
  br label %10

164:                                              ; preds = %10
  ret i32 0
}

declare dso_local dereferenceable(272) %"class.std::basic_ostream"* @_ZStlsISt11char_traitsIcEERSt13basic_ostreamIcT_ES5_PKc(%"class.std::basic_ostream"* dereferenceable(272), i8*) #1

declare dso_local dereferenceable(272) %"class.std::basic_ostream"* @_ZNSolsEi(%"class.std::basic_ostream"*, i32) #1

; Function Attrs: noinline uwtable
define internal void @_GLOBAL__sub_I_122.cpp() #0 section ".text.startup" {
  call void @__cxx_global_var_init()
  ret void
}


!llvm.module.flags = !{!0}
!llvm.ident = !{!1}

!0 = !{i32 1, !"wchar_size", i32 4}
!1 = !{!"clang version 10.0.0-4ubuntu1 "}
